target datalayout = "e-m:e-p270:32:32-p271:32:32-p272:64:64-i64:64-i128:128-f80:128-n8:16:32:64-S128"
target triple = "x86_64-pc-linux-gnu"

%class.Metadata = type { ptr }
%class.AccessFlags = type { i32 }
%class.Handle = type { ptr }
%class.GrowableArrayBase = type { i32, i32 }
%union.jvalue = type { i64 }
%class.jvmtiDeferredLocalVariableSet = type <{ ptr, i32, [4 x i8], ptr, i32, [4 x i8], ptr, i8, [7 x i8] }>
%class.MonitorInfo = type <{ %class.Handle, ptr, %class.Handle, i8, i8, [6 x i8] }>
%class.GrowableArrayView.7 = type { %class.GrowableArrayBase, ptr }
%class.GrowableArrayView.14 = type { %class.GrowableArrayBase, ptr }
%class.jvmtiDeferredLocalVariable = type <{ i8, [7 x i8], %union.jvalue, i32, [4 x i8] }>
%class.Method = type { %class.Metadata, ptr, ptr, ptr, ptr, %class.AccessFlags, i32, %class.MethodFlags, i16, %class.JfrTraceFlag, ptr, ptr, ptr, ptr }
%class.MethodFlags = type { i32 }
%class.JfrTraceFlag = type { i16 }
%class.ConstMethod = type <{ i64, ptr, ptr, i32, %class.ConstMethodFlags, i8, i8, i16, i16, i16, i16, i16, i16, i16, i16, i16, [4 x i8] }>
%class.ConstMethodFlags = type { i32 }

; Function Attrs: mustprogress nounwind uwtable
define linkonce_odr hidden noundef i32 @_ZN6Method19extra_stack_entriesEv() #1 comdat align 2 {
  ret i32 1
}

; Function Attrs: mustprogress nounwind uwtable
define linkonce_odr hidden noundef zeroext i16 @_ZNK11ConstMethod9max_stackEv(ptr noundef nonnull align 8 dereferenceable(52) %0) #1 comdat align 2 {
  %2 = alloca ptr, align 8
  store ptr %0, ptr %2, align 8
  %3 = load ptr, ptr %2, align 8
  %4 = getelementptr inbounds %class.ConstMethod, ptr %3, i32 0, i32 11
  %5 = load i16, ptr %4, align 2
  ret i16 %5
}

; Function Attrs: mustprogress nounwind uwtable
define linkonce_odr hidden noundef zeroext i16 @_ZNK11ConstMethod10max_localsEv(ptr noundef nonnull align 8 dereferenceable(52) %0) #1 comdat align 2 {
  %2 = alloca ptr, align 8
  store ptr %0, ptr %2, align 8
  %3 = load ptr, ptr %2, align 8
  %4 = getelementptr inbounds %class.ConstMethod, ptr %3, i32 0, i32 12
  %5 = load i16, ptr %4, align 4
  ret i16 %5
}

; Function Attrs: mustprogress nounwind uwtable
define linkonce_odr hidden noundef ptr @_ZNK6Method11constMethodEv(ptr noundef nonnull align 8 dereferenceable(88) %0) #1 comdat align 2 {
  %2 = alloca ptr, align 8
  store ptr %0, ptr %2, align 8
  %3 = load ptr, ptr %2, align 8
  %4 = getelementptr inbounds %class.Method, ptr %3, i32 0, i32 1
  %5 = load ptr, ptr %4, align 8
  ret ptr %5
}

; Function Attrs: mustprogress nounwind uwtable
define linkonce_odr hidden void @_ZN17GrowableArrayViewIP11MonitorInfoE6at_putEiRKS1_(ptr noundef nonnull align 8 dereferenceable(16) %0, i32 noundef %1, ptr noundef nonnull align 8 dereferenceable(8) %2) #1 comdat align 2 {
  %4 = alloca ptr, align 8
  %5 = alloca i32, align 4
  %6 = alloca ptr, align 8
  store ptr %0, ptr %4, align 8
  store i32 %1, ptr %5, align 4
  store ptr %2, ptr %6, align 8
  %7 = load ptr, ptr %4, align 8
  %8 = load ptr, ptr %6, align 8
  %9 = load ptr, ptr %8, align 8
  %10 = getelementptr inbounds %class.GrowableArrayView.7, ptr %7, i32 0, i32 1
  %11 = load ptr, ptr %10, align 8
  %12 = load i32, ptr %5, align 4
  %13 = sext i32 %12 to i64
  %14 = getelementptr inbounds ptr, ptr %11, i64 %13
  store ptr %9, ptr %14, align 8
  ret void
}

; Function Attrs: mustprogress nounwind uwtable
define linkonce_odr hidden noundef zeroext i1 @_ZNK11MonitorInfo10eliminatedEv(ptr noundef nonnull align 8 dereferenceable(26) %0) #1 comdat align 2 {
  %2 = alloca ptr, align 8
  store ptr %0, ptr %2, align 8
  %3 = load ptr, ptr %2, align 8
  %4 = getelementptr inbounds %class.MonitorInfo, ptr %3, i32 0, i32 3
  %5 = load i8, ptr %4, align 8
  %6 = trunc i8 %5 to i1
  ret i1 %6
}

; Function Attrs: mustprogress nounwind uwtable
define linkonce_odr hidden noundef ptr @_ZNK11MonitorInfo4lockEv(ptr noundef nonnull align 8 dereferenceable(26) %0) #1 comdat align 2 {
  %2 = alloca ptr, align 8
  store ptr %0, ptr %2, align 8
  %3 = load ptr, ptr %2, align 8
  %4 = getelementptr inbounds %class.MonitorInfo, ptr %3, i32 0, i32 1
  %5 = load ptr, ptr %4, align 8
  ret ptr %5
}

; Function Attrs: mustprogress nounwind uwtable
define linkonce_odr hidden i64 @_ZN26jvmtiDeferredLocalVariable5valueEv(ptr noundef nonnull align 8 dereferenceable(20) %0) #1 comdat align 2 {
  %2 = alloca %union.jvalue, align 8
  %3 = alloca ptr, align 8
  store ptr %0, ptr %3, align 8
  %4 = load ptr, ptr %3, align 8
  %5 = getelementptr inbounds %class.jvmtiDeferredLocalVariable, ptr %4, i32 0, i32 2
  call void @llvm.memcpy.p0.p0.i64(ptr align 8 %2, ptr align 8 %5, i64 8, i1 false)
  %6 = getelementptr inbounds %union.jvalue, ptr %2, i32 0, i32 0
  %7 = load i64, ptr %6, align 8
  ret i64 %7
}

; Function Attrs: mustprogress nounwind uwtable
define linkonce_odr hidden noundef ptr @_ZN11ResourceObjnwEm(i64 noundef %0) #1 comdat align 2 {
  %2 = alloca i64, align 8
  store i64 %0, ptr %2, align 8
  %3 = load i64, ptr %2, align 8
  %4 = call noundef ptr @_Z23resource_allocate_bytesmN17AllocFailStrategy13AllocFailEnumE(i64 noundef %3, i32 noundef 0)
  ret ptr %4
}

; Function Attrs: mustprogress nounwind uwtable
define linkonce_odr hidden noundef nonnull align 8 dereferenceable(8) ptr @_ZN17GrowableArrayViewIP11MonitorInfoE2atEi(ptr noundef nonnull align 8 dereferenceable(16) %0, i32 noundef %1) #1 comdat align 2 {
  %3 = alloca ptr, align 8
  %4 = alloca i32, align 4
  store ptr %0, ptr %3, align 8
  store i32 %1, ptr %4, align 4
  %5 = load ptr, ptr %3, align 8
  %6 = getelementptr inbounds %class.GrowableArrayView.7, ptr %5, i32 0, i32 1
  %7 = load ptr, ptr %6, align 8
  %8 = load i32, ptr %4, align 4
  %9 = sext i32 %8 to i64
  %10 = getelementptr inbounds ptr, ptr %7, i64 %9
  ret ptr %10
}

; Function Attrs: mustprogress nounwind uwtable
define linkonce_odr hidden noundef i32 @_ZNK6Method9max_stackEv(ptr noundef nonnull align 8 dereferenceable(88) %0) #1 comdat align 2 {
  %2 = alloca ptr, align 8
  store ptr %0, ptr %2, align 8
  %3 = load ptr, ptr %2, align 8
  %4 = call noundef ptr @_ZNK6Method11constMethodEv(ptr noundef nonnull align 8 dereferenceable(88) %3)
  %5 = call noundef zeroext i16 @_ZNK11ConstMethod9max_stackEv(ptr noundef nonnull align 8 dereferenceable(52) %4)
  %6 = zext i16 %5 to i32
  %7 = call noundef i32 @_ZN6Method19extra_stack_entriesEv()
  %8 = add nsw i32 %6, %7
  ret i32 %8
}

; Function Attrs: mustprogress nounwind uwtable
define linkonce_odr hidden noundef zeroext i16 @_ZNK6Method10max_localsEv(ptr noundef nonnull align 8 dereferenceable(88) %0) #1 comdat align 2 {
  %2 = alloca ptr, align 8
  store ptr %0, ptr %2, align 8
  %3 = load ptr, ptr %2, align 8
  %4 = call noundef ptr @_ZNK6Method11constMethodEv(ptr noundef nonnull align 8 dereferenceable(88) %3)
  %5 = call noundef zeroext i16 @_ZNK11ConstMethod10max_localsEv(ptr noundef nonnull align 8 dereferenceable(52) %4)
  ret i16 %5
}

; Function Attrs: mustprogress nounwind uwtable
define linkonce_odr hidden noundef ptr @_ZNK29jvmtiDeferredLocalVariableSet6methodEv(ptr noundef nonnull align 8 dereferenceable(41) %0) #1 comdat align 2 {
  %2 = alloca ptr, align 8
  store ptr %0, ptr %2, align 8
  %3 = load ptr, ptr %2, align 8
  %4 = getelementptr inbounds %class.jvmtiDeferredLocalVariableSet, ptr %3, i32 0, i32 0
  %5 = load ptr, ptr %4, align 8
  ret ptr %5
}

; Function Attrs: mustprogress nounwind uwtable
define linkonce_odr hidden noundef i32 @_ZN26jvmtiDeferredLocalVariable5indexEv(ptr noundef nonnull align 8 dereferenceable(20) %0) #1 comdat align 2 {
  %2 = alloca ptr, align 8
  store ptr %0, ptr %2, align 8
  %3 = load ptr, ptr %2, align 8
  %4 = getelementptr inbounds %class.jvmtiDeferredLocalVariable, ptr %3, i32 0, i32 3
  %5 = load i32, ptr %4, align 8
  ret i32 %5
}

; Function Attrs: mustprogress nounwind uwtable
define linkonce_odr hidden noundef nonnull align 8 dereferenceable(8) ptr @_ZN17GrowableArrayViewIP26jvmtiDeferredLocalVariableE2atEi(ptr noundef nonnull align 8 dereferenceable(16) %0, i32 noundef %1) #1 comdat align 2 {
  %3 = alloca ptr, align 8
  %4 = alloca i32, align 4
  store ptr %0, ptr %3, align 8
  store i32 %1, ptr %4, align 4
  %5 = load ptr, ptr %3, align 8
  %6 = getelementptr inbounds %class.GrowableArrayView.14, ptr %5, i32 0, i32 1
  %7 = load ptr, ptr %6, align 8
  %8 = load i32, ptr %4, align 4
  %9 = sext i32 %8 to i64
  %10 = getelementptr inbounds ptr, ptr %7, i64 %9
  ret ptr %10
}

; Function Attrs: mustprogress nounwind uwtable
define linkonce_odr hidden noundef i32 @_ZNK17GrowableArrayBase6lengthEv(ptr noundef nonnull align 4 dereferenceable(8) %0) #1 comdat align 2 {
  %2 = alloca ptr, align 8
  store ptr %0, ptr %2, align 8
  %3 = load ptr, ptr %2, align 8
  %4 = getelementptr inbounds %class.GrowableArrayBase, ptr %3, i32 0, i32 0
  %5 = load i32, ptr %4, align 4
  ret i32 %5
}

; Function Attrs: mustprogress nounwind uwtable
define hidden void @_ZN29jvmtiDeferredLocalVariableSet15update_monitorsEP13GrowableArrayIP11MonitorInfoE(ptr noundef nonnull align 8 dereferenceable(41) %0, ptr noundef %1) #1 align 2 {
  %3 = alloca ptr, align 8
  %4 = alloca ptr, align 8
  %5 = alloca i32, align 4
  %6 = alloca ptr, align 8
  %7 = alloca i32, align 4
  %8 = alloca ptr, align 8
  %9 = alloca ptr, align 8
  %10 = alloca %union.jvalue, align 8
  store ptr %0, ptr %3, align 8
  store ptr %1, ptr %4, align 8
  %11 = load ptr, ptr %3, align 8
  store i32 0, ptr %5, align 4
  br label %12

12:                                               ; preds = %59, %2
  %13 = load i32, ptr %5, align 4
  %14 = getelementptr inbounds %class.jvmtiDeferredLocalVariableSet, ptr %11, i32 0, i32 6
  %15 = load ptr, ptr %14, align 8
  %16 = call noundef i32 @_ZNK17GrowableArrayBase6lengthEv(ptr noundef nonnull align 4 dereferenceable(8) %15)
  %17 = icmp slt i32 %13, %16
  br i1 %17, label %18, label %62

18:                                               ; preds = %12
  %19 = getelementptr inbounds %class.jvmtiDeferredLocalVariableSet, ptr %11, i32 0, i32 6
  %20 = load ptr, ptr %19, align 8
  %21 = load i32, ptr %5, align 4
  %22 = call noundef nonnull align 8 dereferenceable(8) ptr @_ZN17GrowableArrayViewIP26jvmtiDeferredLocalVariableE2atEi(ptr noundef nonnull align 8 dereferenceable(16) %20, i32 noundef %21)
  %23 = load ptr, ptr %22, align 8
  store ptr %23, ptr %6, align 8
  %24 = load ptr, ptr %6, align 8
  %25 = call noundef i32 @_ZN26jvmtiDeferredLocalVariable5indexEv(ptr noundef nonnull align 8 dereferenceable(20) %24)
  %26 = call noundef ptr @_ZNK29jvmtiDeferredLocalVariableSet6methodEv(ptr noundef nonnull align 8 dereferenceable(41) %11)
  %27 = call noundef zeroext i16 @_ZNK6Method10max_localsEv(ptr noundef nonnull align 8 dereferenceable(88) %26)
  %28 = zext i16 %27 to i32
  %29 = call noundef ptr @_ZNK29jvmtiDeferredLocalVariableSet6methodEv(ptr noundef nonnull align 8 dereferenceable(41) %11)
  %30 = call noundef i32 @_ZNK6Method9max_stackEv(ptr noundef nonnull align 8 dereferenceable(88) %29)
  %31 = add nsw i32 %28, %30
  %32 = icmp sge i32 %25, %31
  br i1 %32, label %33, label %58

33:                                               ; preds = %18
  %34 = load ptr, ptr %6, align 8
  %35 = call noundef i32 @_ZN26jvmtiDeferredLocalVariable5indexEv(ptr noundef nonnull align 8 dereferenceable(20) %34)
  %36 = call noundef ptr @_ZNK29jvmtiDeferredLocalVariableSet6methodEv(ptr noundef nonnull align 8 dereferenceable(41) %11)
  %37 = call noundef zeroext i16 @_ZNK6Method10max_localsEv(ptr noundef nonnull align 8 dereferenceable(88) %36)
  %38 = zext i16 %37 to i32
  %39 = call noundef ptr @_ZNK29jvmtiDeferredLocalVariableSet6methodEv(ptr noundef nonnull align 8 dereferenceable(41) %11)
  %40 = call noundef i32 @_ZNK6Method9max_stackEv(ptr noundef nonnull align 8 dereferenceable(88) %39)
  %41 = add nsw i32 %38, %40
  %42 = sub nsw i32 %35, %41
  store i32 %42, ptr %7, align 4
  %43 = load ptr, ptr %4, align 8
  %44 = load i32, ptr %7, align 4
  %45 = call noundef nonnull align 8 dereferenceable(8) ptr @_ZN17GrowableArrayViewIP11MonitorInfoE2atEi(ptr noundef nonnull align 8 dereferenceable(16) %43, i32 noundef %44)
  %46 = load ptr, ptr %45, align 8
  store ptr %46, ptr %8, align 8
  %47 = call noundef ptr @_ZN11ResourceObjnwEm(i64 noundef 32)
  %48 = load ptr, ptr %6, align 8
  %49 = call i64 @_ZN26jvmtiDeferredLocalVariable5valueEv(ptr noundef nonnull align 8 dereferenceable(20) %48)
  %50 = getelementptr inbounds %union.jvalue, ptr %10, i32 0, i32 0
  store i64 %49, ptr %50, align 8
  %51 = load ptr, ptr %10, align 8
  %52 = load ptr, ptr %8, align 8
  %53 = call noundef ptr @_ZNK11MonitorInfo4lockEv(ptr noundef nonnull align 8 dereferenceable(26) %52)
  %54 = load ptr, ptr %8, align 8
  %55 = call noundef zeroext i1 @_ZNK11MonitorInfo10eliminatedEv(ptr noundef nonnull align 8 dereferenceable(26) %54)
  call void @_ZN11MonitorInfoC1EP7oopDescP9BasicLockbb(ptr noundef nonnull align 8 dereferenceable(26) %47, ptr noundef %51, ptr noundef %53, i1 noundef zeroext %55, i1 noundef zeroext false)
  store ptr %47, ptr %9, align 8
  %56 = load ptr, ptr %4, align 8
  %57 = load i32, ptr %7, align 4
  call void @_ZN17GrowableArrayViewIP11MonitorInfoE6at_putEiRKS1_(ptr noundef nonnull align 8 dereferenceable(16) %56, i32 noundef %57, ptr noundef nonnull align 8 dereferenceable(8) %9)
  br label %58

58:                                               ; preds = %33, %18
  br label %59

59:                                               ; preds = %58
  %60 = load i32, ptr %5, align 4
  %61 = add nsw i32 %60, 1
  store i32 %61, ptr %5, align 4
  br label %12, !llvm.loop !20

62:                                               ; preds = %12
  ret void
}