; Function Attrs: mustprogress nounwind uwtable
define hidden void @_ZN29jvmtiDeferredLocalVariableSet15update_monitorsEP13GrowableArrayIP11MonitorInfoE(ptr nocapture noundef nonnull readonly align 8 dereferenceable(41) %0, ptr nocapture noundef readonly %1) local_unnamed_addr #0 align 2 {
  %3 = getelementptr inbounds i8, ptr %0, i64 32
  %4 = load ptr, ptr %3, align 8
  %5 = load i32, ptr %4, align 4
  %6 = icmp sgt i32 %5, 0
  br i1 %6, label %.lr.ph, label %._crit_edge

.lr.ph:                                           ; preds = %2
  %7 = getelementptr inbounds i8, ptr %1, i64 8
  br label %8

8:                                                ; preds = %.lr.ph, %44
  %9 = phi i32 [ %5, %.lr.ph ], [ %45, %44 ]
  %10 = phi ptr [ %4, %.lr.ph ], [ %46, %44 ]
  %indvars.iv = phi i64 [ 0, %.lr.ph ], [ %indvars.iv.next, %44 ]
  %11 = getelementptr inbounds i8, ptr %10, i64 8
  %12 = load ptr, ptr %11, align 8
  %13 = getelementptr inbounds ptr, ptr %12, i64 %indvars.iv
  %14 = load ptr, ptr %13, align 8
  %15 = getelementptr inbounds i8, ptr %14, i64 16
  %16 = load i32, ptr %15, align 8
  %17 = load ptr, ptr %0, align 8
  %18 = getelementptr inbounds i8, ptr %17, i64 8
  %19 = load ptr, ptr %18, align 8
  %20 = getelementptr inbounds i8, ptr %19, i64 44
  %21 = load i16, ptr %20, align 4
  %22 = zext i16 %21 to i32
  %23 = getelementptr inbounds i8, ptr %19, i64 42
  %24 = load i16, ptr %23, align 2
  %25 = zext i16 %24 to i32
  %26 = add nuw nsw i32 %22, 1
  %27 = add nuw nsw i32 %26, %25
  %.not = icmp slt i32 %16, %27
  br i1 %.not, label %44, label %28

28:                                               ; preds = %8
  %29 = sub nsw i32 %16, %27
  %30 = load ptr, ptr %7, align 8
  %31 = sext i32 %29 to i64
  %32 = getelementptr inbounds ptr, ptr %30, i64 %31
  %33 = load ptr, ptr %32, align 8
  %34 = tail call noundef ptr @_Z23resource_allocate_bytesmN17AllocFailStrategy13AllocFailEnumE(i64 noundef 32, i32 noundef 0) #11
  %35 = getelementptr inbounds i8, ptr %14, i64 8
  %.sroa.0.0.copyload.i = load i64, ptr %35, align 8
  %36 = inttoptr i64 %.sroa.0.0.copyload.i to ptr
  %37 = getelementptr inbounds i8, ptr %33, i64 8
  %38 = load ptr, ptr %37, align 8
  %39 = getelementptr inbounds i8, ptr %33, i64 24
  %40 = load i8, ptr %39, align 8
  %41 = trunc i8 %40 to i1
  tail call void @_ZN11MonitorInfoC1EP7oopDescP9BasicLockbb(ptr noundef nonnull align 8 dereferenceable(26) %34, ptr noundef %36, ptr noundef %38, i1 noundef zeroext %41, i1 noundef zeroext false) #11
  %42 = load ptr, ptr %7, align 8
  %43 = getelementptr inbounds ptr, ptr %42, i64 %31
  store ptr %34, ptr %43, align 8
  %.pre = load ptr, ptr %3, align 8
  %.pre14 = load i32, ptr %.pre, align 4
  br label %44

44:                                               ; preds = %8, %28
  %45 = phi i32 [ %9, %8 ], [ %.pre14, %28 ]
  %46 = phi ptr [ %10, %8 ], [ %.pre, %28 ]
  %indvars.iv.next = add nuw nsw i64 %indvars.iv, 1
  %47 = sext i32 %45 to i64
  %48 = icmp slt i64 %indvars.iv.next, %47
  br i1 %48, label %8, label %._crit_edge, !llvm.loop !19

._crit_edge:                                      ; preds = %44, %2
  ret void
}